target datalayout = "e-m:e-p270:32:32-p271:32:32-p272:64:64-i64:64-i128:128-f80:128-n8:16:32:64-S128"
target triple = "x86_64-pc-linux-gnu"

%struct.LogicalRepRelation = type { i32, ptr, ptr, i32, ptr, ptr, i8, i8, ptr }

@.str.46 = private unnamed_addr constant [11 x i8] c"pg_catalog\00", align 1

; Function Attrs: nounwind uwtable
define internal void @logicalrep_read_attrs(ptr noundef %0, ptr noundef %1) #0 {
  %3 = alloca ptr, align 8
  %4 = alloca ptr, align 8
  %5 = alloca i32, align 4
  %6 = alloca i32, align 4
  %7 = alloca ptr, align 8
  %8 = alloca ptr, align 8
  %9 = alloca ptr, align 8
  %10 = alloca i8, align 1
  store ptr %0, ptr %3, align 8
  store ptr %1, ptr %4, align 8
  call void @llvm.lifetime.start.p0(i64 4, ptr %5) #9
  call void @llvm.lifetime.start.p0(i64 4, ptr %6) #9
  call void @llvm.lifetime.start.p0(i64 8, ptr %7) #9
  call void @llvm.lifetime.start.p0(i64 8, ptr %8) #9
  call void @llvm.lifetime.start.p0(i64 8, ptr %9) #9
  store ptr null, ptr %9, align 8
  %11 = load ptr, ptr %3, align 8
  %12 = call i32 @pq_getmsgint(ptr noundef %11, i32 noundef 2)
  store i32 %12, ptr %6, align 4
  %13 = load i32, ptr %6, align 4
  %14 = sext i32 %13 to i64
  %15 = mul i64 %14, 8
  %16 = call ptr @palloc(i64 noundef %15)
  store ptr %16, ptr %7, align 8
  %17 = load i32, ptr %6, align 4
  %18 = sext i32 %17 to i64
  %19 = mul i64 %18, 4
  %20 = call ptr @palloc(i64 noundef %19)
  store ptr %20, ptr %8, align 8
  store i32 0, ptr %5, align 4
  br label %21

21:                                               ; preds = %53, %2
  %22 = load i32, ptr %5, align 4
  %23 = load i32, ptr %6, align 4
  %24 = icmp slt i32 %22, %23
  br i1 %24, label %25, label %56

25:                                               ; preds = %21
  call void @llvm.lifetime.start.p0(i64 1, ptr %10) #9
  %26 = load ptr, ptr %3, align 8
  %27 = call i32 @pq_getmsgbyte(ptr noundef %26)
  %28 = trunc i32 %27 to i8
  store i8 %28, ptr %10, align 1
  %29 = load i8, ptr %10, align 1
  %30 = zext i8 %29 to i32
  %31 = and i32 %30, 1
  %32 = icmp ne i32 %31, 0
  br i1 %32, label %33, label %37

33:                                               ; preds = %25
  %34 = load ptr, ptr %9, align 8
  %35 = load i32, ptr %5, align 4
  %36 = call ptr @bms_add_member(ptr noundef %34, i32 noundef %35)
  store ptr %36, ptr %9, align 8
  br label %37

37:                                               ; preds = %33, %25
  %38 = load ptr, ptr %3, align 8
  %39 = call ptr @pq_getmsgstring(ptr noundef %38)
  %40 = call ptr @pstrdup(ptr noundef %39)
  %41 = load ptr, ptr %7, align 8
  %42 = load i32, ptr %5, align 4
  %43 = sext i32 %42 to i64
  %44 = getelementptr inbounds ptr, ptr %41, i64 %43
  store ptr %40, ptr %44, align 8
  %45 = load ptr, ptr %3, align 8
  %46 = call i32 @pq_getmsgint(ptr noundef %45, i32 noundef 4)
  %47 = load ptr, ptr %8, align 8
  %48 = load i32, ptr %5, align 4
  %49 = sext i32 %48 to i64
  %50 = getelementptr inbounds i32, ptr %47, i64 %49
  store i32 %46, ptr %50, align 4
  %51 = load ptr, ptr %3, align 8
  %52 = call i32 @pq_getmsgint(ptr noundef %51, i32 noundef 4)
  call void @llvm.lifetime.end.p0(i64 1, ptr %10) #9
  br label %53

53:                                               ; preds = %37
  %54 = load i32, ptr %5, align 4
  %55 = add i32 %54, 1
  store i32 %55, ptr %5, align 4
  br label %21, !llvm.loop !14

56:                                               ; preds = %21
  %57 = load ptr, ptr %7, align 8
  %58 = load ptr, ptr %4, align 8
  %59 = getelementptr inbounds nuw %struct.LogicalRepRelation, ptr %58, i32 0, i32 4
  store ptr %57, ptr %59, align 8
  %60 = load ptr, ptr %8, align 8
  %61 = load ptr, ptr %4, align 8
  %62 = getelementptr inbounds nuw %struct.LogicalRepRelation, ptr %61, i32 0, i32 5
  store ptr %60, ptr %62, align 8
  %63 = load ptr, ptr %9, align 8
  %64 = load ptr, ptr %4, align 8
  %65 = getelementptr inbounds nuw %struct.LogicalRepRelation, ptr %64, i32 0, i32 8
  store ptr %63, ptr %65, align 8
  %66 = load i32, ptr %6, align 4
  %67 = load ptr, ptr %4, align 8
  %68 = getelementptr inbounds nuw %struct.LogicalRepRelation, ptr %67, i32 0, i32 3
  store i32 %66, ptr %68, align 8
  call void @llvm.lifetime.end.p0(i64 8, ptr %9) #9
  call void @llvm.lifetime.end.p0(i64 8, ptr %8) #9
  call void @llvm.lifetime.end.p0(i64 8, ptr %7) #9
  call void @llvm.lifetime.end.p0(i64 4, ptr %6) #9
  call void @llvm.lifetime.end.p0(i64 4, ptr %5) #9
  ret void
}

; Function Attrs: nounwind uwtable
define internal ptr @logicalrep_read_namespace(ptr noundef %0) #0 {
  %2 = alloca ptr, align 8
  %3 = alloca ptr, align 8
  store ptr %0, ptr %2, align 8
  call void @llvm.lifetime.start.p0(i64 8, ptr %3) #9
  %4 = load ptr, ptr %2, align 8
  %5 = call ptr @pq_getmsgstring(ptr noundef %4)
  store ptr %5, ptr %3, align 8
  %6 = load ptr, ptr %3, align 8
  %7 = getelementptr inbounds i8, ptr %6, i64 0
  %8 = load i8, ptr %7, align 1
  %9 = sext i8 %8 to i32
  %10 = icmp eq i32 %9, 0
  br i1 %10, label %11, label %12

11:                                               ; preds = %1
  store ptr @.str.46, ptr %3, align 8
  br label %12

12:                                               ; preds = %11, %1
  %13 = load ptr, ptr %3, align 8
  call void @llvm.lifetime.end.p0(i64 8, ptr %3) #9
  ret ptr %13
}

; Function Attrs: nounwind uwtable
define dso_local ptr @logicalrep_read_rel(ptr noundef %0) #0 {
  %2 = alloca ptr, align 8
  %3 = alloca ptr, align 8
  store ptr %0, ptr %2, align 8
  call void @llvm.lifetime.start.p0(i64 8, ptr %3) #9
  %4 = call ptr @palloc(i64 noundef 64)
  store ptr %4, ptr %3, align 8
  %5 = load ptr, ptr %2, align 8
  %6 = call i32 @pq_getmsgint(ptr noundef %5, i32 noundef 4)
  %7 = load ptr, ptr %3, align 8
  %8 = getelementptr inbounds nuw %struct.LogicalRepRelation, ptr %7, i32 0, i32 0
  store i32 %6, ptr %8, align 8
  %9 = load ptr, ptr %2, align 8
  %10 = call ptr @logicalrep_read_namespace(ptr noundef %9)
  %11 = call ptr @pstrdup(ptr noundef %10)
  %12 = load ptr, ptr %3, align 8
  %13 = getelementptr inbounds nuw %struct.LogicalRepRelation, ptr %12, i32 0, i32 1
  store ptr %11, ptr %13, align 8
  %14 = load ptr, ptr %2, align 8
  %15 = call ptr @pq_getmsgstring(ptr noundef %14)
  %16 = call ptr @pstrdup(ptr noundef %15)
  %17 = load ptr, ptr %3, align 8
  %18 = getelementptr inbounds nuw %struct.LogicalRepRelation, ptr %17, i32 0, i32 2
  store ptr %16, ptr %18, align 8
  %19 = load ptr, ptr %2, align 8
  %20 = call i32 @pq_getmsgbyte(ptr noundef %19)
  %21 = trunc i32 %20 to i8
  %22 = load ptr, ptr %3, align 8
  %23 = getelementptr inbounds nuw %struct.LogicalRepRelation, ptr %22, i32 0, i32 6
  store i8 %21, ptr %23, align 8
  %24 = load ptr, ptr %2, align 8
  %25 = load ptr, ptr %3, align 8
  call void @logicalrep_read_attrs(ptr noundef %24, ptr noundef %25)
  %26 = load ptr, ptr %3, align 8
  call void @llvm.lifetime.end.p0(i64 8, ptr %3) #9
  ret ptr %26
}