; Function Attrs: nounwind uwtable
define dso_local ptr @logicalrep_read_rel(ptr noundef %0) local_unnamed_addr #0 {
  %2 = tail call ptr @palloc(i64 noundef 64) #8
  %3 = tail call i32 @pq_getmsgint(ptr noundef %0, i32 noundef 4) #8
  store i32 %3, ptr %2, align 8
  %4 = tail call ptr @pq_getmsgstring(ptr noundef %0) #8
  %5 = load i8, ptr %4, align 1
  %6 = icmp eq i8 %5, 0
  %spec.store.select.i = select i1 %6, ptr @.str.46, ptr %4
  %7 = tail call ptr @pstrdup(ptr noundef nonnull %spec.store.select.i) #8
  %8 = getelementptr inbounds nuw i8, ptr %2, i64 8
  store ptr %7, ptr %8, align 8
  %9 = tail call ptr @pq_getmsgstring(ptr noundef %0) #8
  %10 = tail call ptr @pstrdup(ptr noundef %9) #8
  %11 = getelementptr inbounds nuw i8, ptr %2, i64 16
  store ptr %10, ptr %11, align 8
  %12 = tail call i32 @pq_getmsgbyte(ptr noundef %0) #8
  %13 = trunc i32 %12 to i8
  %14 = getelementptr inbounds nuw i8, ptr %2, i64 48
  store i8 %13, ptr %14, align 8
  %15 = tail call i32 @pq_getmsgint(ptr noundef %0, i32 noundef 2) #8
  %16 = sext i32 %15 to i64
  %17 = shl nsw i64 %16, 3
  %18 = tail call ptr @palloc(i64 noundef %17) #8
  %19 = shl nsw i64 %16, 2
  %20 = tail call ptr @palloc(i64 noundef %19) #8
  %21 = icmp sgt i32 %15, 0
  br i1 %21, label %.lr.ph.preheader.i, label %logicalrep_read_attrs.exit

.lr.ph.preheader.i:                               ; preds = %1
  %wide.trip.count.i = zext nneg i32 %15 to i64
  br label %.lr.ph.i

.lr.ph.i:                                         ; preds = %27, %.lr.ph.preheader.i
  %indvars.iv.i = phi i64 [ 0, %.lr.ph.preheader.i ], [ %indvars.iv.next.i, %27 ]
  %.02426.i = phi ptr [ null, %.lr.ph.preheader.i ], [ %.1.i, %27 ]
  %22 = tail call i32 @pq_getmsgbyte(ptr noundef %0) #8
  %23 = and i32 %22, 1
  %.not.i = icmp eq i32 %23, 0
  br i1 %.not.i, label %27, label %24

24:                                               ; preds = %.lr.ph.i
  %25 = trunc nuw nsw i64 %indvars.iv.i to i32
  %26 = tail call ptr @bms_add_member(ptr noundef %.02426.i, i32 noundef %25) #8
  br label %27

27:                                               ; preds = %24, %.lr.ph.i
  %.1.i = phi ptr [ %26, %24 ], [ %.02426.i, %.lr.ph.i ]
  %28 = tail call ptr @pq_getmsgstring(ptr noundef %0) #8
  %29 = tail call ptr @pstrdup(ptr noundef %28) #8
  %30 = getelementptr inbounds nuw ptr, ptr %18, i64 %indvars.iv.i
  store ptr %29, ptr %30, align 8
  %31 = tail call i32 @pq_getmsgint(ptr noundef %0, i32 noundef 4) #8
  %32 = getelementptr inbounds nuw i32, ptr %20, i64 %indvars.iv.i
  store i32 %31, ptr %32, align 4
  %33 = tail call i32 @pq_getmsgint(ptr noundef %0, i32 noundef 4) #8
  %indvars.iv.next.i = add nuw nsw i64 %indvars.iv.i, 1
  %exitcond.not.i = icmp eq i64 %indvars.iv.next.i, %wide.trip.count.i
  br i1 %exitcond.not.i, label %logicalrep_read_attrs.exit, label %.lr.ph.i, !llvm.loop !224

logicalrep_read_attrs.exit:                       ; preds = %27, %1
  %.024.lcssa.i = phi ptr [ null, %1 ], [ %.1.i, %27 ]
  %34 = getelementptr inbounds nuw i8, ptr %2, i64 32
  store ptr %18, ptr %34, align 8
  %35 = getelementptr inbounds nuw i8, ptr %2, i64 40
  store ptr %20, ptr %35, align 8
  %36 = getelementptr inbounds nuw i8, ptr %2, i64 56
  store ptr %.024.lcssa.i, ptr %36, align 8
  %37 = getelementptr inbounds nuw i8, ptr %2, i64 24
  store i32 %15, ptr %37, align 8
  ret ptr %2
}